; Function Attrs: nounwind uwtable
define internal i32 @element_compare(ptr noundef readonly captures(none) %0, ptr noundef readonly captures(none) %1, ptr noundef %2) #0 {
  %4 = load i64, ptr %0, align 8
  %5 = load i64, ptr %1, align 8
  %6 = getelementptr inbounds nuw i8, ptr %2, i64 120
  %7 = getelementptr inbounds nuw i8, ptr %2, i64 28
  %8 = load i32, ptr %7, align 4
  %9 = tail call i64 @FunctionCall2Coll(ptr noundef nonnull %6, i32 noundef %8, i64 noundef %4, i64 noundef %5) #10
  %10 = trunc i64 %9 to i32
  ret i32 %10
}